; ModuleID = 'source-C-CXX/0/2088.c'
source_filename = "source-C-CXX/0/2088.c"
target datalayout = "e-m:e-p270:32:32-p271:32:32-p272:64:64-i64:64-f80:128-n8:16:32:64-S128"
target triple = "x86_64-pc-linux-gnu"

@.str = private unnamed_addr constant [3 x i8] c"%d\00", align 1
@.str.1 = private unnamed_addr constant [4 x i8] c"%d\0A\00", align 1

; Function Attrs: nofree nosync nounwind readnone sspstrong uwtable
define dso_local i32 @f(i32 %0, i32 %1) local_unnamed_addr #0 {
  %3 = sdiv i32 %0, 2
  %4 = icmp slt i32 %3, %1
  br i1 %4, label %21, label %5

5:                                                ; preds = %2, %17
  %6 = phi i32 [ %19, %17 ], [ %1, %2 ]
  %7 = phi i32 [ %18, %17 ], [ 0, %2 ]
  %8 = srem i32 %0, %6
  %9 = sdiv i32 %0, %6
  %10 = icmp ne i32 %8, 0
  %11 = icmp slt i32 %9, %6
  %12 = or i1 %10, %11
  br i1 %12, label %17, label %13

13:                                               ; preds = %5
  %14 = add nsw i32 %7, 1
  %15 = tail call i32 @f(i32 %9, i32 %6)
  %16 = add nsw i32 %14, %15
  br label %17

17:                                               ; preds = %5, %13
  %18 = phi i32 [ %16, %13 ], [ %7, %5 ]
  %19 = add i32 %6, 1
  %20 = icmp eq i32 %6, %3
  br i1 %20, label %21, label %5, !llvm.loop !5

21:                                               ; preds = %17, %2
  %22 = phi i32 [ 0, %2 ], [ %18, %17 ]
  ret i32 %22
}

; Function Attrs: argmemonly mustprogress nofree nosync nounwind willreturn
declare void @llvm.lifetime.start.p0i8(i64 immarg, i8* nocapture) #1

; Function Attrs: argmemonly mustprogress nofree nosync nounwind willreturn
declare void @llvm.lifetime.end.p0i8(i64 immarg, i8* nocapture) #1

; Function Attrs: nofree nounwind sspstrong uwtable
define dso_local i32 @main() local_unnamed_addr #2 {
  %1 = alloca i32, align 4
  %2 = alloca i32, align 4
  %3 = bitcast i32* %1 to i8*
  call void @llvm.lifetime.start.p0i8(i64 4, i8* nonnull %3) #4
  %4 = bitcast i32* %2 to i8*
  call void @llvm.lifetime.start.p0i8(i64 4, i8* nonnull %4) #4
  %5 = call i32 (i8*, ...) @__isoc99_scanf(i8* getelementptr inbounds ([3 x i8], [3 x i8]* @.str, i64 0, i64 0), i32* nonnull %1)
  %6 = load i32, i32* %1, align 4, !tbaa !7
  %7 = icmp slt i32 %6, 1
  br i1 %7, label %18, label %8

8:                                                ; preds = %0, %8
  %9 = phi i32 [ %15, %8 ], [ 1, %0 ]
  %10 = call i32 (i8*, ...) @__isoc99_scanf(i8* getelementptr inbounds ([3 x i8], [3 x i8]* @.str, i64 0, i64 0), i32* nonnull %2)
  %11 = load i32, i32* %2, align 4, !tbaa !7
  %12 = call i32 @f(i32 %11, i32 2)
  %13 = add nsw i32 %12, 1
  %14 = call i32 (i8*, ...) @printf(i8* nonnull dereferenceable(1) getelementptr inbounds ([4 x i8], [4 x i8]* @.str.1, i64 0, i64 0), i32 %13)
  %15 = add nuw nsw i32 %9, 1
  %16 = load i32, i32* %1, align 4, !tbaa !7
  %17 = icmp slt i32 %9, %16
  br i1 %17, label %8, label %18, !llvm.loop !11

18:                                               ; preds = %8, %0
  call void @llvm.lifetime.end.p0i8(i64 4, i8* nonnull %4) #4
  call void @llvm.lifetime.end.p0i8(i64 4, i8* nonnull %3) #4
  ret i32 0
}

; Function Attrs: nofree nounwind
declare noundef i32 @__isoc99_scanf(i8* nocapture noundef readonly, ...) local_unnamed_addr #3

; Function Attrs: nofree nounwind
declare noundef i32 @printf(i8* nocapture noundef readonly, ...) local_unnamed_addr #3


!llvm.module.flags = !{!0, !1, !2, !3}
!llvm.ident = !{!4}

!0 = !{i32 1, !"wchar_size", i32 4}
!1 = !{i32 7, !"PIC Level", i32 2}
!2 = !{i32 7, !"PIE Level", i32 2}
!3 = !{i32 7, !"uwtable", i32 1}
!4 = !{!"clang version 13.0.0"}
!5 = distinct !{!5, !6}
!6 = !{!"llvm.loop.mustprogress"}
!7 = !{!8, !8, i64 0}
!8 = !{!"int", !9, i64 0}
!9 = !{!"omnipotent char", !10, i64 0}
!10 = !{!"Simple C/C++ TBAA"}
!11 = distinct !{!11, !6}
